; Function Attrs: mustprogress uwtable
define void @ucol_setText_77(ptr noundef %0, ptr noundef %1, i32 noundef %2, ptr noundef %3) local_unnamed_addr #6 personality ptr @__gxx_personality_v0 {
  %5 = alloca %"class.icu_77::UnicodeString", align 8
  %6 = alloca %"class.icu_77::ConstChar16Ptr", align 8
  %7 = load i32, ptr %3, align 4, !tbaa !12
  %8 = icmp slt i32 %7, 1
  br i1 %8, label %9, label %24

9:                                                ; preds = %4
  %10 = icmp eq ptr %1, null
  %11 = icmp ne i32 %2, 0
  %or.cond = and i1 %10, %11
  br i1 %or.cond, label %12, label %13

12:                                               ; preds = %9
  store i32 1, ptr %3, align 4, !tbaa !12
  br label %24

13:                                               ; preds = %9
  call void @llvm.lifetime.start.p0(i64 64, ptr nonnull %5) #14
  %.lobit = lshr i32 %2, 31
  %14 = trunc nuw nsw i32 %.lobit to i8
  store ptr %1, ptr %6, align 8, !tbaa !46
  invoke void @_ZN6icu_7713UnicodeStringC1EaNS_14ConstChar16PtrEi(ptr noundef nonnull align 8 dereferenceable(64) %5, i8 noundef signext %14, ptr noundef nonnull %6, i32 noundef %2)
          to label %15 unwind label %18

15:                                               ; preds = %13
  %16 = load ptr, ptr %6, align 8, !tbaa !46
  call void asm sideeffect "", "rm,~{memory},~{dirflag},~{fpsr},~{flags}"(ptr %16) #14, !srcloc !49
  invoke void @_ZN6icu_7724CollationElementIterator7setTextERKNS_13UnicodeStringER10UErrorCode(ptr noundef nonnull align 8 dereferenceable(104) %0, ptr noundef nonnull align 8 dereferenceable(64) %5, ptr noundef nonnull align 4 dereferenceable(4) %3)
          to label %17 unwind label %21

17:                                               ; preds = %15
  call void @_ZN6icu_7713UnicodeStringD1Ev(ptr noundef nonnull align 8 dereferenceable(64) %5) #14
  call void @llvm.lifetime.end.p0(i64 64, ptr nonnull %5) #14
  br label %24

18:                                               ; preds = %13
  %19 = landingpad { ptr, i32 }
          cleanup
  %20 = load ptr, ptr %6, align 8, !tbaa !46
  call void asm sideeffect "", "rm,~{memory},~{dirflag},~{fpsr},~{flags}"(ptr %20) #14, !srcloc !49
  br label %23

21:                                               ; preds = %15
  %22 = landingpad { ptr, i32 }
          cleanup
  call void @_ZN6icu_7713UnicodeStringD1Ev(ptr noundef nonnull align 8 dereferenceable(64) %5) #14
  br label %23

23:                                               ; preds = %21, %18
  %.pn = phi { ptr, i32 } [ %22, %21 ], [ %19, %18 ]
  call void @llvm.lifetime.end.p0(i64 64, ptr nonnull %5) #14
  resume { ptr, i32 } %.pn

24:                                               ; preds = %4, %17, %12
  ret void
}